target datalayout = "e-m:e-p270:32:32-p271:32:32-p272:64:64-i64:64-i128:128-f80:128-n8:16:32:64-S128"
target triple = "x86_64-pc-linux-gnu"

%struct.CRYPTO_REF_COUNT = type { i32 }
%struct.cert_st = type { ptr, ptr, ptr, i32, i32, ptr, i64, ptr, i64, ptr, i64, ptr, i64, ptr, ptr, ptr, ptr, %struct.custom_ext_methods, ptr, i32, ptr, ptr, %struct.CRYPTO_REF_COUNT }
%struct.custom_ext_methods = type { ptr, i64 }

@.str.2 = private unnamed_addr constant [24 x i8] c"../openssl/ssl/t1_lib.c\00", align 1

; Function Attrs: nounwind uwtable
define i32 @tls1_set_raw_sigalgs(ptr noundef %0, ptr noundef %1, i64 noundef %2, i32 noundef %3) #1 {
  %5 = alloca i32, align 4
  %6 = alloca ptr, align 8
  %7 = alloca ptr, align 8
  %8 = alloca i64, align 8
  %9 = alloca i32, align 4
  %10 = alloca ptr, align 8
  %11 = alloca i32, align 4
  store ptr %0, ptr %6, align 8, !tbaa !323
  store ptr %1, ptr %7, align 8, !tbaa !142
  store i64 %2, ptr %8, align 8, !tbaa !3
  store i32 %3, ptr %9, align 4, !tbaa !128
  call void @llvm.lifetime.start.p0(i64 8, ptr %10) #8
  %12 = load i64, ptr %8, align 8, !tbaa !3
  %13 = mul i64 %12, 2
  %14 = call noalias ptr @CRYPTO_malloc(i64 noundef %13, ptr noundef @.str.2, i32 noundef 3708)
  store ptr %14, ptr %10, align 8, !tbaa !142
  %15 = icmp eq ptr %14, null
  br i1 %15, label %16, label %17

16:                                               ; preds = %4
  store i32 0, ptr %5, align 4
  store i32 1, ptr %11, align 4
  br label %45

17:                                               ; preds = %4
  %18 = load ptr, ptr %10, align 8, !tbaa !142
  %19 = load ptr, ptr %7, align 8, !tbaa !142
  %20 = load i64, ptr %8, align 8, !tbaa !3
  %21 = mul i64 %20, 2
  call void @llvm.memcpy.p0.p0.i64(ptr align 2 %18, ptr align 2 %19, i64 %21, i1 false)
  %22 = load i32, ptr %9, align 4, !tbaa !128
  %23 = icmp ne i32 %22, 0
  br i1 %23, label %24, label %34

24:                                               ; preds = %17
  %25 = load ptr, ptr %6, align 8, !tbaa !323
  %26 = getelementptr inbounds nuw %struct.cert_st, ptr %25, i32 0, i32 11
  %27 = load ptr, ptr %26, align 8, !tbaa !240
  call void @CRYPTO_free(ptr noundef %27, ptr noundef @.str.2, i32 noundef 3713)
  %28 = load ptr, ptr %10, align 8, !tbaa !142
  %29 = load ptr, ptr %6, align 8, !tbaa !323
  %30 = getelementptr inbounds nuw %struct.cert_st, ptr %29, i32 0, i32 11
  store ptr %28, ptr %30, align 8, !tbaa !240
  %31 = load i64, ptr %8, align 8, !tbaa !3
  %32 = load ptr, ptr %6, align 8, !tbaa !323
  %33 = getelementptr inbounds nuw %struct.cert_st, ptr %32, i32 0, i32 12
  store i64 %31, ptr %33, align 8, !tbaa !241
  br label %44

34:                                               ; preds = %17
  %35 = load ptr, ptr %6, align 8, !tbaa !323
  %36 = getelementptr inbounds nuw %struct.cert_st, ptr %35, i32 0, i32 9
  %37 = load ptr, ptr %36, align 8, !tbaa !242
  call void @CRYPTO_free(ptr noundef %37, ptr noundef @.str.2, i32 noundef 3717)
  %38 = load ptr, ptr %10, align 8, !tbaa !142
  %39 = load ptr, ptr %6, align 8, !tbaa !323
  %40 = getelementptr inbounds nuw %struct.cert_st, ptr %39, i32 0, i32 9
  store ptr %38, ptr %40, align 8, !tbaa !242
  %41 = load i64, ptr %8, align 8, !tbaa !3
  %42 = load ptr, ptr %6, align 8, !tbaa !323
  %43 = getelementptr inbounds nuw %struct.cert_st, ptr %42, i32 0, i32 10
  store i64 %41, ptr %43, align 8, !tbaa !243
  br label %44

44:                                               ; preds = %34, %24
  store i32 1, ptr %5, align 4
  store i32 1, ptr %11, align 4
  br label %45

45:                                               ; preds = %44, %16
  call void @llvm.lifetime.end.p0(i64 8, ptr %10) #8
  %46 = load i32, ptr %5, align 4
  ret i32 %46
}