; Function Attrs: nounwind uwtable
define range(i32 0, 2) i32 @tls1_set_raw_sigalgs(ptr noundef captures(none) %0, ptr noundef readonly captures(none) %1, i64 noundef %2, i32 noundef %3) local_unnamed_addr #2 {
  %5 = shl i64 %2, 1
  %6 = tail call noalias ptr @CRYPTO_malloc(i64 noundef %5, ptr noundef nonnull @.str.2, i32 noundef 3708) #14
  %7 = icmp eq ptr %6, null
  br i1 %7, label %11, label %.sink.split

.sink.split:                                      ; preds = %4
  tail call void @llvm.memcpy.p0.p0.i64(ptr nonnull align 2 %6, ptr align 2 %1, i64 %5, i1 false)
  %.not = icmp eq i32 %3, 0
  %. = select i1 %.not, i64 64, i64 80
  %.21 = select i1 %.not, i32 3717, i32 3713
  %.22 = select i1 %.not, i64 72, i64 88
  %8 = getelementptr inbounds nuw i8, ptr %0, i64 %.
  %9 = load ptr, ptr %8, align 8, !tbaa !131
  tail call void @CRYPTO_free(ptr noundef %9, ptr noundef nonnull @.str.2, i32 noundef %.21) #14
  store ptr %6, ptr %8, align 8, !tbaa !131
  %10 = getelementptr inbounds nuw i8, ptr %0, i64 %.22
  store i64 %2, ptr %10, align 8, !tbaa !105
  br label %11

11:                                               ; preds = %.sink.split, %4
  %.0 = phi i32 [ 0, %4 ], [ 1, %.sink.split ]
  ret i32 %.0
}